target datalayout = "e-m:e-p270:32:32-p271:32:32-p272:64:64-i64:64-i128:128-f80:128-n8:16:32:64-S128"
target triple = "x86_64-pc-linux-gnu"

%"class.grpc_core::PolymorphicRefCount" = type { ptr }
%"class.grpc_core::RefCount" = type { %"struct.std::atomic" }
%"struct.std::atomic" = type { %"struct.std::__atomic_base" }
%"struct.std::__atomic_base" = type { i64 }
%class.grpc_ssl_server_credentials = type { %struct.grpc_server_credentials, %struct.grpc_ssl_server_config, %struct.grpc_ssl_server_certificate_config_fetcher }
%struct.grpc_server_credentials = type { %"class.grpc_core::RefCounted.13", %struct.grpc_auth_metadata_processor }
%"class.grpc_core::RefCounted.13" = type { %"class.grpc_core::PolymorphicRefCount", %"class.grpc_core::RefCount" }
%struct.grpc_auth_metadata_processor = type { ptr, ptr, ptr }
%struct.grpc_ssl_server_config = type <{ ptr, i64, ptr, i32, i32, i32, [4 x i8] }>
%struct.grpc_ssl_server_certificate_config_fetcher = type { ptr, ptr }

@_ZTV23grpc_server_credentials = linkonce_odr unnamed_addr constant { [6 x ptr] } { [6 x ptr] [ptr null, ptr @_ZTI23grpc_server_credentials, ptr @_ZN23grpc_server_credentialsD2Ev, ptr @_ZN23grpc_server_credentialsD0Ev, ptr @__cxa_pure_virtual, ptr @__cxa_pure_virtual] }, comdat, align 8

; Function Attrs: mustprogress nounwind uwtable
define linkonce_odr void @_ZN9grpc_core19PolymorphicRefCountD2Ev(ptr noundef nonnull align 8 dereferenceable(8) %0) unnamed_addr #8 comdat align 2 {
  %2 = alloca ptr, align 8
  store ptr %0, ptr %2, align 8, !tbaa !201
  ret void
}

; Function Attrs: mustprogress uwtable
define linkonce_odr void @_ZN23grpc_server_credentials16DestroyProcessorEv(ptr noundef nonnull align 8 dereferenceable(40) %0) #4 comdat align 2 {
  %2 = alloca ptr, align 8
  store ptr %0, ptr %2, align 8, !tbaa !161
  %3 = load ptr, ptr %2, align 8
  %4 = getelementptr inbounds nuw %struct.grpc_server_credentials, ptr %3, i32 0, i32 1
  %5 = getelementptr inbounds nuw %struct.grpc_auth_metadata_processor, ptr %4, i32 0, i32 1
  %6 = load ptr, ptr %5, align 8, !tbaa !291
  %7 = icmp ne ptr %6, null
  br i1 %7, label %8, label %20

8:                                                ; preds = %1
  %9 = getelementptr inbounds nuw %struct.grpc_server_credentials, ptr %3, i32 0, i32 1
  %10 = getelementptr inbounds nuw %struct.grpc_auth_metadata_processor, ptr %9, i32 0, i32 2
  %11 = load ptr, ptr %10, align 8, !tbaa !292
  %12 = icmp ne ptr %11, null
  br i1 %12, label %13, label %20

13:                                               ; preds = %8
  %14 = getelementptr inbounds nuw %struct.grpc_server_credentials, ptr %3, i32 0, i32 1
  %15 = getelementptr inbounds nuw %struct.grpc_auth_metadata_processor, ptr %14, i32 0, i32 1
  %16 = load ptr, ptr %15, align 8, !tbaa !291
  %17 = getelementptr inbounds nuw %struct.grpc_server_credentials, ptr %3, i32 0, i32 1
  %18 = getelementptr inbounds nuw %struct.grpc_auth_metadata_processor, ptr %17, i32 0, i32 2
  %19 = load ptr, ptr %18, align 8, !tbaa !292
  call void %16(ptr noundef %19)
  br label %20

20:                                               ; preds = %13, %8, %1
  ret void
}

; Function Attrs: mustprogress nounwind uwtable
define linkonce_odr void @_ZN23grpc_server_credentialsD2Ev(ptr noundef nonnull align 8 dereferenceable(40) %0) unnamed_addr #8 comdat align 2 personality ptr @__gxx_personality_v0 {
  %2 = alloca ptr, align 8
  store ptr %0, ptr %2, align 8, !tbaa !161
  %3 = load ptr, ptr %2, align 8
  store ptr getelementptr inbounds inrange(-16, 32) ({ [6 x ptr] }, ptr @_ZTV23grpc_server_credentials, i32 0, i32 0, i32 2), ptr %3, align 8, !tbaa !11
  invoke void @_ZN23grpc_server_credentials16DestroyProcessorEv(ptr noundef nonnull align 8 dereferenceable(40) %3)
          to label %4 unwind label %5

4:                                                ; preds = %1
  call void @_ZN9grpc_core19PolymorphicRefCountD2Ev(ptr noundef nonnull align 8 dereferenceable(16) %3) #3
  ret void

5:                                                ; preds = %1
  %6 = landingpad { ptr, i32 }
          catch ptr null
  %7 = extractvalue { ptr, i32 } %6, 0
  call void @__clang_call_terminate(ptr %7) #26
  unreachable
}

; Function Attrs: mustprogress nounwind uwtable
define void @_ZN27grpc_ssl_server_credentialsD2Ev(ptr noundef nonnull align 8 dereferenceable(96) %0) unnamed_addr #8 align 2 personality ptr @__gxx_personality_v0 {
  %2 = alloca ptr, align 8
  store ptr %0, ptr %2, align 8, !tbaa !138
  %3 = load ptr, ptr %2, align 8
  %4 = getelementptr inbounds nuw %class.grpc_ssl_server_credentials, ptr %3, i32 0, i32 1
  %5 = getelementptr inbounds nuw %struct.grpc_ssl_server_config, ptr %4, i32 0, i32 0
  %6 = load ptr, ptr %5, align 8, !tbaa !176
  %7 = getelementptr inbounds nuw %class.grpc_ssl_server_credentials, ptr %3, i32 0, i32 1
  %8 = getelementptr inbounds nuw %struct.grpc_ssl_server_config, ptr %7, i32 0, i32 1
  %9 = load i64, ptr %8, align 8, !tbaa !177
  invoke void @_Z39grpc_tsi_ssl_pem_key_cert_pairs_destroyP25tsi_ssl_pem_key_cert_pairm(ptr noundef %6, i64 noundef %9)
          to label %10 unwind label %15

10:                                               ; preds = %1
  %11 = getelementptr inbounds nuw %class.grpc_ssl_server_credentials, ptr %3, i32 0, i32 1
  %12 = getelementptr inbounds nuw %struct.grpc_ssl_server_config, ptr %11, i32 0, i32 2
  %13 = load ptr, ptr %12, align 8, !tbaa !175
  invoke void @gpr_free(ptr noundef %13)
          to label %14 unwind label %15

14:                                               ; preds = %10
  call void @_ZN23grpc_server_credentialsD2Ev(ptr noundef nonnull align 8 dereferenceable(40) %3) #3
  ret void

15:                                               ; preds = %10, %1
  %16 = landingpad { ptr, i32 }
          catch ptr null
  %17 = extractvalue { ptr, i32 } %16, 0
  call void @__clang_call_terminate(ptr %17) #26
  unreachable
}