; Function Attrs: mustprogress nounwind uwtable
define void @_ZN27grpc_ssl_server_credentialsD2Ev(ptr noundef nonnull align 8 captures(none) dereferenceable(96) %0) unnamed_addr #7 align 2 personality ptr @__gxx_personality_v0 {
  %2 = getelementptr inbounds nuw i8, ptr %0, i64 40
  %3 = load ptr, ptr %2, align 8, !tbaa !129
  %4 = getelementptr inbounds nuw i8, ptr %0, i64 48
  %5 = load i64, ptr %4, align 8, !tbaa !130
  invoke void @_Z39grpc_tsi_ssl_pem_key_cert_pairs_destroyP25tsi_ssl_pem_key_cert_pairm(ptr noundef %3, i64 noundef %5)
          to label %6 unwind label %19

6:                                                ; preds = %1
  %7 = getelementptr inbounds nuw i8, ptr %0, i64 56
  %8 = load ptr, ptr %7, align 8, !tbaa !128
  invoke void @gpr_free(ptr noundef %8)
          to label %9 unwind label %19

9:                                                ; preds = %6
  store ptr getelementptr inbounds nuw inrange(-16, 32) (i8, ptr @_ZTV23grpc_server_credentials, i64 16), ptr %0, align 8, !tbaa !8
  %10 = getelementptr inbounds nuw i8, ptr %0, i64 24
  %11 = load ptr, ptr %10, align 8, !tbaa !131
  %.not.i.i = icmp eq ptr %11, null
  br i1 %.not.i.i, label %_ZN23grpc_server_credentialsD2Ev.exit, label %12

12:                                               ; preds = %9
  %13 = getelementptr inbounds nuw i8, ptr %0, i64 32
  %14 = load ptr, ptr %13, align 8, !tbaa !132
  %.not2.i.i = icmp eq ptr %14, null
  br i1 %.not2.i.i, label %_ZN23grpc_server_credentialsD2Ev.exit, label %15

15:                                               ; preds = %12
  invoke void %11(ptr noundef nonnull %14)
          to label %_ZN23grpc_server_credentialsD2Ev.exit unwind label %16

16:                                               ; preds = %15
  %17 = landingpad { ptr, i32 }
          catch ptr null
  %18 = extractvalue { ptr, i32 } %17, 0
  tail call void @__clang_call_terminate(ptr %18) #31
  unreachable

_ZN23grpc_server_credentialsD2Ev.exit:            ; preds = %9, %12, %15
  ret void

19:                                               ; preds = %6, %1
  %20 = landingpad { ptr, i32 }
          catch ptr null
  %21 = extractvalue { ptr, i32 } %20, 0
  tail call void @__clang_call_terminate(ptr %21) #31
  unreachable
}